Sections:
00: "segf7e" (F7E-1001)
01: "seg1001" (1001-11F9)


Source: "empty.s"
                        	     1: d400_sVoc1FreqLo = $b800
                        	     2: d401_sVoc1FreqHi = $b801
                        	     3: d402_sVoc1PWidthLo = $b802
                        	     4: d403_sVoc1PWidthHi = $b803
                        	     5: d404_sVoc1Control = $b804
                        	     6: d405_sVoc1AttDec = $b805
                        	     7: d406_sVoc1SusRel = $b806
                        	     8: d407_sVoc2FreqLo = $b807
                        	     9: d408_sVoc2FreqHi = $b808
                        	    10: d409_sVoc2PWidthLo = $b809
                        	    11: d40a_sVoc2PWidthHi = $b80a
                        	    12: d40b_sVoc2Control = $b80b
                        	    13: d40c_sVoc2AttDec = $b80c
                        	    14: d40d_sVoc2SusRel = $b80d
                        	    15: d40e_sVoc3FreqLo = $b80e
                        	    16: d40f_sVoc3FreqHi = $b80f
                        	    17: d410_sVoc3PWidthLo = $b810
                        	    18: d411_sVoc3PWidthHi = $b811
                        	    19: d412_sVoc3Control = $b812
                        	    20: d413_sVoc3AttDec = $b813
                        	    21: d414_sVoc3SusRel = $b814
                        	    22: d415_sFiltFreqLo = $b815
                        	    23: d416_sFiltFreqHi = $b816
                        	    24: d417_sFiltControl = $b817
                        	    25: d418_sFiltMode = $b818
                        	    26: 
                        	    27:   .org $0f7e
00:0F7E 82              	    28:   .byte $82, $0f, $01, $12
00:0F7F 0F
00:0F80 01
00:0F81 12
                        	    29:   .include "kernal_def.s"

Source: "kernal_def.s"
                        	     1: ; kernal def
                        	     2: 
                        	     3: ; SD VARIABLES & LOCATIONS
                        	     4: zp_sd_address = $48         ; 2 bytes
                        	     5: zp_sd_currentsector = $4a   ; 4 bytes
                        	     6: zp_fat32_variables = $4f    ; 49 bytes
                        	     7: 
                        	     8: path = $400		    ; page
                        	     9: fat32_workspace = $500      ; two pages
                        	    10: 
                        	    11: fat32_readbuffer = fat32_workspace
                        	    12: 
                        	    13: fat32_fatstart                  = zp_fat32_variables + $00  ; 4 bytes
                        	    14: fat32_datastart                 = zp_fat32_variables + $04  ; 4 bytes
                        	    15: fat32_rootcluster               = zp_fat32_variables + $08  ; 4 bytes
                        	    16: fat32_sectorspercluster         = zp_fat32_variables + $0c  ; 1 byte
                        	    17: fat32_pendingsectors            = zp_fat32_variables + $0d  ; 1 byte
                        	    18: fat32_address                   = zp_fat32_variables + $0e  ; 2 bytes
                        	    19: fat32_nextcluster               = zp_fat32_variables + $10  ; 4 bytes
                        	    20: fat32_bytesremaining            = zp_fat32_variables + $14  ; 4 bytes           
                        	    21: fat32_lastfoundfreecluster      = zp_fat32_variables + $18  ; 4 bytes
                        	    22: fat32_lastcluster               = zp_fat32_variables + $1c  ; 4 bytes
                        	    23: fat32_lastsector                = zp_fat32_variables + $21  ; 4 bytes
                        	    24: fat32_filenamepointer           = zp_fat32_variables + $26  ; 2 bytes
                        	    25: fat32_numfats                   = zp_fat32_variables + $28  ; 1 byte
                        	    26: fat32_filecluster               = zp_fat32_variables + $29  ; 4 bytes
                        	    27: fat32_sectorsperfat             = zp_fat32_variables + $2d  ; 4 bytes
                        	    28: 
                        	    29: fat32_errorstage            = fat32_bytesremaining  ; only used during initialization
                        	    30: 
                        	    31: ;newer routines
                        	    32: sd_writesector = $ff8e
                        	    33: fat32_writenextsector = $ff91
                        	    34: fat32_allocatecluster = $ff94
                        	    35: fat32_findnextfreecluster = $ff97
                        	    36: fat32_writedirent = $ff9a
                        	    37: fat32_deletefile = $ff9d
                        	    38: fat32_file_write = $ffa0
                        	    39: 
                        	    40: ; xpldos
                        	    41: savecmd = $ffa3
                        	    42: cdcmd = $ffa6
                        	    43: lscmd = $ffa9
                        	    44: 
                        	    45: ; inits
                        	    46: acia_init = $ffac		; initialize acia
                        	    47: stock_via = $ffaf		; default via initialization
                        	    48: sd_init = $ffb2			; initialize sd card
                        	    49: fat32_init = $ffb5		; initialize fat32 (requires sd init)
                        	    50: ; acia
                        	    51: print_hex_acia = $ffb8		; prints a hex byte in A
                        	    52: crlf = $ffbb			; prints CR+LF
                        	    53: cleardisplay = $ffbe		; clears the screen
                        	    54: rxpoll = $ffc1			; return if a key pressed
                        	    55: txpoll = $ffc4			; check if we can write to the screen (automaticlly done in all acia routunes)
                        	    56: print_chara = $ffc7		; print one char from A
                        	    57: print_char_acia = $ffc7		; same as print_chara
                        	    58: ascii_home = $ffca		; home the cursor
                        	    59: w_acia_full = $ffcd		; print a null-terminated string, #< in x and #> in y
                        	    60: ; fat32
                        	    61: fat32_seekcluster = $ffd0	; gets ready to read the next cluster, and advances it according to the FAT
                        	    62: fat32_readnextcluster = $ffd3	; reads the next sector from a cluster chain into the buffer at fat32_address.
                        	    63: fat32_openroot = $ffd6		; prepare to read the root directory
                        	    64: fat32_opendirent = $ffd9	; prepare to read a file or directory based on a dirent
                        	    65: fat32_readdirent = $ffdc	; read a directory entry from the open directory
                        	    66: fat32_finddirent = $ffdf	; finds a particular directory entry. X,Y point to the 11-character filename to seek.
                        	    67: fat32_file_readbyte = $ffe2	; read a byte from an open file
                        	    68: fat32_file_read = $ffe5		; read a whole file into memory (assumes the file has just been opened and no data has been re
                        	    69: ; TODO fat32_file_writebyte
                        	    70: sd_readbyte = $ffe8		; read a byte from the sd card
                        	    71: sd_sendcommand = $ffeb		; send a command to the sd card
                        	    72: sd_readsector = $ffee		; read a sector from the sd card (512 bytes)
                        	    73: ; load/save
                        	    74: loadcmd = $fff1			; load /folder/code.xpl (with address at /folder/loadaddr.sar)
                        	    75: tsave = $fff4			; save a file to tape. start address at cnt and end address at len (16-bit)
                        	    76: tload = $fff7			; load a file from tape. the file location header is also loaded from tape
                        	    77: ; TODO loadpath, loadlc, savepath, and savelc COMING SOON
                        	    78: 
                        	    79: 
                        	    80: 

Source: "empty.s"
                        	    30: 
                        	    31: init:
00:0F82 78              	    32:   sei
00:0F83 A2C9            	    33:   ldx #<secret
00:0F85 A00F            	    34:   ldy #>secret
00:0F87 20CDFF          	    35:   jsr w_acia_full
00:0F8A A9AB            	    36:   lda #<irq
00:0F8C 8DFE7F          	    37:   sta $7ffe
00:0F8F A90F            	    38:   lda #>irq
00:0F91 8DFF7F          	    39:   sta $7fff
00:0F94 A9C0            	    40:   lda #$c0
00:0F96 8D0EB0          	    41:   sta $b00e
00:0F99 20B80F          	    42:   jsr putbut
00:0F9C A900            	    43:   lda #0 ; Song Number
00:0F9E 20ED11          	    44:   jsr InitSid
00:0FA1 A940            	    45:   lda #$40
00:0FA3 8D0DB0          	    46:   sta $b00d
00:0FA6 58              	    47:   cli
00:0FA7 EA              	    48:   nop
                        	    49: ; You can put code you want to run in the backround here.
                        	    50: loop:
00:0FA8 4CA80F          	    51:   jmp loop
                        	    52: irq:
00:0FAB 48              	    53:   pha
00:0FAC DA              	    54:   phx
00:0FAD 5A              	    55:   phy
00:0FAE 20B80F          	    56:   jsr putbut
00:0FB1 200410          	    57:   jsr PlaySid
00:0FB4 7A              	    58:   ply
00:0FB5 FA              	    59:   plx
00:0FB6 68              	    60:   pla
00:0FB7 40              	    61:   rti
                        	    62: 
                        	    63: putbut
00:0FB8 A21E            	    64:   ldx #$1e
00:0FBA 8E04B0          	    65:   stx $b004
00:0FBD 8E06B0          	    66:   stx $b006
00:0FC0 A24E            	    67:   ldx #$4e    ;50Hz IRQ
00:0FC2 8E05B0          	    68:   stx $b005
00:0FC5 8E07B0          	    69:   stx $b007
00:0FC8 60              	    70:   rts 
                        	    71: 
                        	    72: secret:
00:0FC9 796F7520666F756E	    73: 	.byte "you found the easter egg!", $0d, $0a, $0d, $0a, "now playing 4MAT - EMPTY", $0d, $0a, $00
00:0FD1 6420746865206561
00:0FD9 7374657220656767
00:0FE1 21
00:0FE2 0D
00:0FE3 0A
00:0FE4 0D
00:0FE5 0A
00:0FE6 6E6F7720706C6179
00:0FEE 696E6720344D4154
00:0FF6 202D20454D505459
00:0FFE 0D
00:0FFF 0A
00:1000 00
                        	    74: 
                        	    75: 	.org $1001
                        	    76: 
01:1001 4C0710          	    77: L1001               jmp L1007
                        	    78:                     
01:1004 4CB710          	    79: PlaySid             jmp L10b7
                        	    80:                     
01:1007 A200            	    81: L1007               ldx #$00
01:1009 A901            	    82: L1009               lda #$01
01:100B 8580            	    83:                     sta $80
01:100D 8A              	    84:                     txa
01:100E A8              	    85:                     tay
01:100F A580            	    86: L100f               lda $80
01:1011 99AB18          	    87:                     sta $18ab,y
01:1014 0A              	    88:                     asl a
01:1015 8580            	    89:                     sta $80
01:1017 BD3011          	    90:                     lda $1130,x
01:101A 992B19          	    91:                     sta $192b,y
01:101D 2A              	    92:                     rol a
01:101E 9D3011          	    93:                     sta $1130,x
01:1021 9006            	    94:                     bcc L1029
01:1023 A580            	    95:                     lda $80
01:1025 6900            	    96:                     adc #$00
01:1027 8580            	    97:                     sta $80
01:1029 18              	    98: L1029               clc
01:102A 98              	    99:                     tya
01:102B 690C            	   100:                     adc #$0c
01:102D A8              	   101:                     tay
01:102E 10DF            	   102:                     bpl L100f
01:1030 E8              	   103:                     inx
01:1031 E00C            	   104:                     cpx #$0c
01:1033 D0D4            	   105:                     bne L1009
01:1035 A00E            	   106:                     ldy #$0e
01:1037 8C18B8          	   107:                     sty d418_sFiltMode
01:103A A202            	   108:                     ldx #$02
01:103C BDEA11          	   109: L103c               lda $11ea,x
01:103F 992F18          	   110:                     sta $182f,y
01:1042 A90E            	   111:                     lda #$0e
01:1044 991A18          	   112:                     sta $181a,y
01:1047 98              	   113:                     tya
01:1048 E907            	   114:                     sbc #$07
01:104A A8              	   115:                     tay
01:104B CA              	   116:                     dex
01:104C D0EE            	   117:                     bne L103c
01:104E 60              	   118:                     rts
                        	   119:                     
01:104F BC1518          	   120: L104f               ldy $1815,x
01:1052 BD0218          	   121:                     lda $1802,x
01:1055 797411          	   122:                     adc $1174,y
01:1058 DD0218          	   123:                     cmp $1802,x
01:105B 9D0218          	   124:                     sta $1802,x
01:105E B003            	   125:                     bcs L1063
01:1060 FE0318          	   126:                     inc $1803,x
01:1063 98              	   127: L1063               tya
01:1064 0A              	   128:                     asl a
01:1065 0A              	   129:                     asl a
01:1066 7D1618          	   130:                     adc $1816,x
01:1069 FD1518          	   131:                     sbc $1815,x
01:106C A8              	   132:                     tay
01:106D B95111          	   133:                     lda $1151,y
01:1070 9D0418          	   134:                     sta $1804,x
01:1073 B93C11          	   135:                     lda $113c,y
01:1076 C9F0            	   136:                     cmp #$f0
01:1078 9012            	   137:                     bcc L108c
01:107A 290F            	   138:                     and #$0f
01:107C 7D1818          	   139:                     adc $1818,x
01:107F 7D2C18          	   140:                     adc $182c,x
01:1082 A8              	   141:                     tay
01:1083 B92A19          	   142:                     lda $192a,y
01:1086 9D0018          	   143:                     sta $1800,x
01:1089 B9AA18          	   144:                     lda $18aa,y
01:108C 9D0118          	   145: L108c               sta $1801,x
01:108F FE1618          	   146: L108f               inc $1816,x
01:1092 BD1618          	   147:                     lda $1816,x
01:1095 2903            	   148:                     and #$03
01:1097 D00A            	   149:                     bne L10a3
01:1099 BC1518          	   150:                     ldy $1815,x
01:109C B96D11          	   151:                     lda $116d,y
01:109F 4A              	   152:                     lsr a
01:10A0 4A              	   153:                     lsr a
01:10A1 4A              	   154:                     lsr a
01:10A2 4A              	   155:                     lsr a
01:10A3 9D1618          	   156: L10a3               sta $1816,x
01:10A6 A007            	   157: L10a6               ldy #$07
01:10A8 BD0018          	   158: L10a8               lda $1800,x
01:10AB 9D00B8          	   159:                     sta d400_sVoc1FreqLo,x
01:10AE E8              	   160:                     inx
01:10AF 88              	   161:                     dey
01:10B0 D0F6            	   162:                     bne L10a8
01:10B2 E015            	   163:                     cpx #$15
01:10B4 D003            	   164:                     bne L10b9
01:10B6 60              	   165:                     rts
                        	   166:                     
01:10B7 A200            	   167: L10b7               ldx #$00
01:10B9 DE2E18          	   168: L10b9               dec $182e,x
01:10BC 1091            	   169:                     bpl L104f
01:10BE A906            	   170:                     lda #$06
01:10C0 9D2E18          	   171:                     sta $182e,x
01:10C3 DE2A18          	   172:                     dec $182a,x
01:10C6 1087            	   173:                     bpl L104f
01:10C8 FE1918          	   174: L10c8               inc $1819,x
01:10CB BC1918          	   175: L10cb               ldy $1819,x
01:10CE BD1B18          	   176:                     lda $181b,x
01:10D1 9D2A18          	   177:                     sta $182a,x
01:10D4 B97B11          	   178:                     lda $117b,y
01:10D7 F0CD            	   179:                     beq L10a6
01:10D9 301E            	   180:                     bmi L10f9
01:10DB 9D1818          	   181:                     sta $1818,x
01:10DE A900            	   182:                     lda #$00
01:10E0 9D1618          	   183:                     sta $1816,x
01:10E3 BC1518          	   184:                     ldy $1815,x
01:10E6 B96D11          	   185:                     lda $116d,y
01:10E9 9D0318          	   186:                     sta $1803,x
01:10EC B96611          	   187:                     lda $1166,y
01:10EF 9D0618          	   188:                     sta $1806,x
01:10F2 A909            	   189:                     lda #$09
01:10F4 9D0418          	   190:                     sta $1804,x
01:10F7 1096            	   191:                     bpl L108f
01:10F9 C9FF            	   192: L10f9               cmp #$ff
01:10FB F010            	   193:                     beq L110d
01:10FD C9DF            	   194:                     cmp #$df
01:10FF 290F            	   195:                     and #$0f
01:1101 9005            	   196:                     bcc L1108
01:1103 9D1518          	   197:                     sta $1815,x
01:1106 10C0            	   198:                     bpl L10c8
01:1108 9D1B18          	   199: L1108               sta $181b,x
01:110B 10BB            	   200:                     bpl L10c8
01:110D FE1A18          	   201: L110d               inc $181a,x
01:1110 BC1A18          	   202: L1110               ldy $181a,x
01:1113 B9BD11          	   203:                     lda $11bd,y
01:1116 3005            	   204:                     bmi L111d
01:1118 9D1918          	   205:                     sta $1819,x
01:111B 10AE            	   206:                     bpl L10cb
01:111D C9FF            	   207: L111d               cmp #$ff
01:111F F007            	   208:                     beq L1128
01:1121 290F            	   209:                     and #$0f
01:1123 9D2C18          	   210:                     sta $182c,x
01:1126 10E5            	   211:                     bpl L110d
01:1128 BD2F18          	   212: L1128               lda $182f,x
01:112B 9D1A18          	   213:                     sta $181a,x
01:112E 10E0            	   214:                     bpl L1110
01:1130 0C              	   215:                     .byte $0c, $1c, $2d, $3e, $51, $66, $7b, $91, $a9, $c3, $dd, $fa, $f3, $f7, $f0, $f4 
01:1131 1C
01:1132 2D
01:1133 3E
01:1134 51
01:1135 66
01:1136 7B
01:1137 91
01:1138 A9
01:1139 C3
01:113A DD
01:113B FA
01:113C F3
01:113D F7
01:113E F0
01:113F F4
01:1140 F7              	   216:                     .byte $f7, $f0, $10, $af, $06, $f0, $f0, $f0, $14, $0c, $e0, $fc, $ef, $f0, $fc, $fc 
01:1141 F0
01:1142 10
01:1143 AF
01:1144 06
01:1145 F0
01:1146 F0
01:1147 F0
01:1148 14
01:1149 0C
01:114A E0
01:114B FC
01:114C EF
01:114D F0
01:114E FC
01:114F FC
01:1150 F0              	   217:                     .byte $f0, $41, $41, $41, $41, $41, $41, $41, $81, $40, $41, $41, $40, $41, $41, $80 
01:1151 41
01:1152 41
01:1153 41
01:1154 41
01:1155 41
01:1156 41
01:1157 41
01:1158 81
01:1159 40
01:115A 41
01:115B 41
01:115C 40
01:115D 41
01:115E 41
01:115F 80
01:1160 11              	   218:                     .byte $11, $81, $40, $11, $21, $40, $6f, $6f, $95, $ec, $a9, $79, $6e, $15, $18, $38 
01:1161 81
01:1162 40
01:1163 11
01:1164 21
01:1165 40
01:1166 6F
01:1167 6F
01:1168 95
01:1169 EC
01:116A A9
01:116B 79
01:116C 6E
01:116D 15
01:116E 18
01:116F 38
01:1170 30              	   219:                     .byte $30, $38, $3b, $36, $1c, $0c, $00, $15, $00, $74, $a5, $00, $ff, $81, $e3, $11 
01:1171 38
01:1172 3B
01:1173 36
01:1174 1C
01:1175 0C
01:1176 00
01:1177 15
01:1178 00
01:1179 74
01:117A A5
01:117B 00
01:117C FF
01:117D 81
01:117E E3
01:117F 11
01:1180 1D              	   220:                     .byte $1d, $82, $e4, $55, $82, $e3, $11, $81, $1d, $e4, $55, $e3, $18, $ff, $e2, $55 
01:1181 82
01:1182 E4
01:1183 55
01:1184 82
01:1185 E3
01:1186 11
01:1187 81
01:1188 1D
01:1189 E4
01:118A 55
01:118B E3
01:118C 18
01:118D FF
01:118E E2
01:118F 55
01:1190 E5              	   221:                     .byte $e5, $30, $35, $3a, $41, $35, $3a, $29, $ff, $8f, $e0, $35, $e1, $33, $31, $00 
01:1191 30
01:1192 35
01:1193 3A
01:1194 41
01:1195 35
01:1196 3A
01:1197 29
01:1198 FF
01:1199 8F
01:119A E0
01:119B 35
01:119C E1
01:119D 33
01:119E 31
01:119F 00
01:11A0 E0              	   222:                     .byte $e0, $35, $e1, $33, $e0, $2e, $00, $ff, $e6, $82, $38, $37, $87, $ff, $33, $80 
01:11A1 35
01:11A2 E1
01:11A3 33
01:11A4 E0
01:11A5 2E
01:11A6 00
01:11A7 FF
01:11A8 E6
01:11A9 82
01:11AA 38
01:11AB 37
01:11AC 87
01:11AD FF
01:11AE 33
01:11AF 80
01:11B0 2E              	   223:                     .byte $2e, $2c, $ff, $31, $8f, $00, $81, $00, $ff, $8f, $2e, $00, $ff, $f0, $02, $02 
01:11B1 2C
01:11B2 FF
01:11B3 31
01:11B4 8F
01:11B5 00
01:11B6 81
01:11B7 00
01:11B8 FF
01:11B9 8F
01:11BA 2E
01:11BB 00
01:11BC FF
01:11BD F0
01:11BE 02
01:11BF 02
01:11C0 F5              	   224:                     .byte $f5, $02, $02, $f8, $02, $fa, $02, $f1, $02, $02, $ff, $13, $ff, $1e, $1e, $2d 
01:11C1 02
01:11C2 02
01:11C3 F8
01:11C4 02
01:11C5 FA
01:11C6 02
01:11C7 F1
01:11C8 02
01:11C9 02
01:11CA FF
01:11CB 13
01:11CC FF
01:11CD 1E
01:11CE 1E
01:11CF 2D
01:11D0 33              	   225:                     .byte $33, $2d, $33, $2d, $38, $2d, $33, $2d, $33, $3e, $2d, $f7, $33, $f0, $2d, $f9 
01:11D1 2D
01:11D2 33
01:11D3 2D
01:11D4 38
01:11D5 2D
01:11D6 33
01:11D7 2D
01:11D8 33
01:11D9 3E
01:11DA 2D
01:11DB F7
01:11DC 33
01:11DD F0
01:11DE 2D
01:11DF F9
01:11E0 33              	   226:                     .byte $33, $f0, $2d, $38, $2d, $33, $2d, $33, $3e, $ff, $00, $0e, $10
01:11E1 F0
01:11E2 2D
01:11E3 38
01:11E4 2D
01:11E5 33
01:11E6 2D
01:11E7 33
01:11E8 3E
01:11E9 FF
01:11EA 00
01:11EB 0E
01:11EC 10
01:11ED A200            	   227: InitSid             ldx #$00
01:11EF 8A              	   228:                     txa
01:11F0 9D0018          	   229: L11f0               sta $1800,x
01:11F3 E8              	   230:                     inx
01:11F4 D0FA            	   231:                     bne L11f0
01:11F6 4C0110          	   232:                     jmp L1001
                        	   233: 
                        	   234: 


Symbols by name:
InitSid                          A:11ED
L1001                            A:1001
L1007                            A:1007
L1009                            A:1009
L100f                            A:100F
L1029                            A:1029
L103c                            A:103C
L104f                            A:104F
L1063                            A:1063
L108c                            A:108C
L108f                            A:108F
L10a3                            A:10A3
L10a6                            A:10A6
L10a8                            A:10A8
L10b7                            A:10B7
L10b9                            A:10B9
L10c8                            A:10C8
L10cb                            A:10CB
L10f9                            A:10F9
L1108                            A:1108
L110d                            A:110D
L1110                            A:1110
L111d                            A:111D
L1128                            A:1128
L11f0                            A:11F0
PlaySid                          A:1004
d400_sVoc1FreqLo                 E:B800
d418_sFiltMode                   E:B818
fat32_bytesremaining             E:0063
fat32_workspace                  E:0500
init                             A:0F82
irq                              A:0FAB
loop                             A:0FA8
putbut                           A:0FB8
secret                           A:0FC9
w_acia_full                      E:FFCD
zp_fat32_variables               E:004F

Symbols by value:
004F zp_fat32_variables
0063 fat32_bytesremaining
0500 fat32_workspace
0F82 init
0FA8 loop
0FAB irq
0FB8 putbut
0FC9 secret
1001 L1001
1004 PlaySid
1007 L1007
1009 L1009
100F L100f
1029 L1029
103C L103c
104F L104f
1063 L1063
108C L108c
108F L108f
10A3 L10a3
10A6 L10a6
10A8 L10a8
10B7 L10b7
10B9 L10b9
10C8 L10c8
10CB L10cb
10F9 L10f9
1108 L1108
110D L110d
1110 L1110
111D L111d
1128 L1128
11ED InitSid
11F0 L11f0
B800 d400_sVoc1FreqLo
B818 d418_sFiltMode
FFCD w_acia_full
